; Function Attrs: mustprogress uwtable
define void @_ZN6icu_7713DecimalFormat21setCurrencyPluralInfoERKNS_18CurrencyPluralInfoE(ptr noundef nonnull align 8 dereferenceable(72) %0, ptr noundef nonnull align 8 dereferenceable(36) %1) unnamed_addr #1 align 2 {
  %3 = alloca i32, align 4
  %4 = getelementptr inbounds nuw i8, ptr %0, i64 64
  %5 = load ptr, ptr %4, align 8, !tbaa !25
  %6 = icmp eq ptr %5, null
  br i1 %6, label %21, label %7

7:                                                ; preds = %2
  %8 = getelementptr inbounds nuw i8, ptr %5, i64 56
  %9 = load ptr, ptr %8, align 8, !tbaa !109
  %.not = icmp eq ptr %9, null
  br i1 %.not, label %10, label %18

10:                                               ; preds = %7
  %11 = tail call noundef ptr @_ZNK6icu_7718CurrencyPluralInfo5cloneEv(ptr noundef nonnull align 8 dereferenceable(36) %1)
  %12 = load ptr, ptr %8, align 8, !tbaa !109
  %13 = icmp eq ptr %12, null
  br i1 %13, label %_ZN6icu_7712LocalPointerINS_18CurrencyPluralInfoEE12adoptInsteadEPS1_.exit, label %14

14:                                               ; preds = %10
  %15 = load ptr, ptr %12, align 8, !tbaa !18
  %16 = getelementptr inbounds nuw i8, ptr %15, i64 8
  %17 = load ptr, ptr %16, align 8
  tail call void %17(ptr noundef nonnull align 8 dereferenceable(36) %12) #19
  br label %_ZN6icu_7712LocalPointerINS_18CurrencyPluralInfoEE12adoptInsteadEPS1_.exit

_ZN6icu_7712LocalPointerINS_18CurrencyPluralInfoEE12adoptInsteadEPS1_.exit: ; preds = %10, %14
  store ptr %11, ptr %8, align 8, !tbaa !109
  br label %20

18:                                               ; preds = %7
  %19 = tail call noundef nonnull align 8 dereferenceable(36) ptr @_ZN6icu_7718CurrencyPluralInfoaSERKS0_(ptr noundef nonnull align 8 dereferenceable(36) %9, ptr noundef nonnull align 8 dereferenceable(36) %1)
  br label %20

20:                                               ; preds = %18, %_ZN6icu_7712LocalPointerINS_18CurrencyPluralInfoEE12adoptInsteadEPS1_.exit
  call void @llvm.lifetime.start.p0(i64 4, ptr nonnull %3) #19
  store i32 0, ptr %3, align 4, !tbaa !13
  call void @_ZN6icu_7713DecimalFormat5touchER10UErrorCode(ptr noundef nonnull align 8 dereferenceable(72) %0, ptr noundef nonnull align 4 dereferenceable(4) %3)
  call void @llvm.lifetime.end.p0(i64 4, ptr nonnull %3) #19
  br label %21

21:                                               ; preds = %2, %20
  ret void
}